; ModuleID = '52/1607.c'
source_filename = "52/1607.c"
target datalayout = "e-m:e-p270:32:32-p271:32:32-p272:64:64-i64:64-f80:128-n8:16:32:64-S128"
target triple = "x86_64-pc-linux-gnu"

@.str = private unnamed_addr constant [5 x i8] c"%d%d\00", align 1
@.str.1 = private unnamed_addr constant [3 x i8] c"%d\00", align 1
@.str.2 = private unnamed_addr constant [4 x i8] c"%d \00", align 1

; Function Attrs: noinline nounwind uwtable
define dso_local i32 @move(i32* %0, i32 %1, i32 %2) #0 {
  %4 = alloca i32, align 4
  %5 = alloca i32*, align 8
  %6 = alloca i32, align 4
  %7 = alloca i32, align 4
  %8 = alloca i32*, align 8
  %9 = alloca i32, align 4
  %10 = alloca i32, align 4
  store i32* %0, i32** %5, align 8
  store i32 %1, i32* %6, align 4
  store i32 %2, i32* %7, align 4
  store i32 0, i32* %10, align 4
  %11 = load i32*, i32** %5, align 8
  %12 = load i32, i32* %6, align 4
  %13 = sext i32 %12 to i64
  %14 = getelementptr inbounds i32, i32* %11, i64 %13
  %15 = getelementptr inbounds i32, i32* %14, i64 -1
  store i32* %15, i32** %8, align 8
  br label %16

16:                                               ; preds = %38, %3
  %17 = load i32, i32* %10, align 4
  %18 = load i32, i32* %7, align 4
  %19 = icmp slt i32 %17, %18
  br i1 %19, label %20, label %46

20:                                               ; preds = %16
  br label %21

21:                                               ; preds = %35, %20
  %22 = load i32*, i32** %8, align 8
  %23 = load i32*, i32** %5, align 8
  %24 = icmp ugt i32* %22, %23
  br i1 %24, label %25, label %38

25:                                               ; preds = %21
  %26 = load i32*, i32** %8, align 8
  %27 = load i32, i32* %26, align 4
  store i32 %27, i32* %9, align 4
  %28 = load i32*, i32** %8, align 8
  %29 = getelementptr inbounds i32, i32* %28, i64 -1
  %30 = load i32, i32* %29, align 4
  %31 = load i32*, i32** %8, align 8
  store i32 %30, i32* %31, align 4
  %32 = load i32, i32* %9, align 4
  %33 = load i32*, i32** %8, align 8
  %34 = getelementptr inbounds i32, i32* %33, i64 -1
  store i32 %32, i32* %34, align 4
  br label %35

35:                                               ; preds = %25
  %36 = load i32*, i32** %8, align 8
  %37 = getelementptr inbounds i32, i32* %36, i32 -1
  store i32* %37, i32** %8, align 8
  br label %21

38:                                               ; preds = %21
  %39 = load i32, i32* %10, align 4
  %40 = add nsw i32 %39, 1
  store i32 %40, i32* %10, align 4
  %41 = load i32*, i32** %5, align 8
  %42 = load i32, i32* %6, align 4
  %43 = sext i32 %42 to i64
  %44 = getelementptr inbounds i32, i32* %41, i64 %43
  %45 = getelementptr inbounds i32, i32* %44, i64 -1
  store i32* %45, i32** %8, align 8
  br label %16

46:                                               ; preds = %16
  %47 = load i32, i32* %4, align 4
  ret i32 %47
}

; Function Attrs: noinline nounwind uwtable
define dso_local i32 @main() #0 {
  %1 = alloca i32, align 4
  %2 = alloca i32, align 4
  %3 = alloca i32, align 4
  %4 = alloca i32*, align 8
  %5 = alloca [10000 x i32], align 16
  store i32 0, i32* %1, align 4
  %6 = call i32 (i8*, ...) @__isoc99_scanf(i8* getelementptr inbounds ([5 x i8], [5 x i8]* @.str, i64 0, i64 0), i32* %2, i32* %3)
  %7 = getelementptr inbounds [10000 x i32], [10000 x i32]* %5, i64 0, i64 0
  store i32* %7, i32** %4, align 8
  br label %8

8:                                                ; preds = %18, %0
  %9 = load i32*, i32** %4, align 8
  %10 = getelementptr inbounds [10000 x i32], [10000 x i32]* %5, i64 0, i64 0
  %11 = load i32, i32* %2, align 4
  %12 = sext i32 %11 to i64
  %13 = getelementptr inbounds i32, i32* %10, i64 %12
  %14 = icmp ult i32* %9, %13
  br i1 %14, label %15, label %21

15:                                               ; preds = %8
  %16 = load i32*, i32** %4, align 8
  %17 = call i32 (i8*, ...) @__isoc99_scanf(i8* getelementptr inbounds ([3 x i8], [3 x i8]* @.str.1, i64 0, i64 0), i32* %16)
  br label %18

18:                                               ; preds = %15
  %19 = load i32*, i32** %4, align 8
  %20 = getelementptr inbounds i32, i32* %19, i32 1
  store i32* %20, i32** %4, align 8
  br label %8

21:                                               ; preds = %8
  %22 = getelementptr inbounds [10000 x i32], [10000 x i32]* %5, i64 0, i64 0
  %23 = load i32, i32* %2, align 4
  %24 = load i32, i32* %3, align 4
  %25 = call i32 @move(i32* %22, i32 %23, i32 %24)
  %26 = getelementptr inbounds [10000 x i32], [10000 x i32]* %5, i64 0, i64 0
  store i32* %26, i32** %4, align 8
  br label %27

27:                                               ; preds = %39, %21
  %28 = load i32*, i32** %4, align 8
  %29 = getelementptr inbounds [10000 x i32], [10000 x i32]* %5, i64 0, i64 0
  %30 = load i32, i32* %2, align 4
  %31 = sext i32 %30 to i64
  %32 = getelementptr inbounds i32, i32* %29, i64 %31
  %33 = getelementptr inbounds i32, i32* %32, i64 -1
  %34 = icmp ult i32* %28, %33
  br i1 %34, label %35, label %42

35:                                               ; preds = %27
  %36 = load i32*, i32** %4, align 8
  %37 = load i32, i32* %36, align 4
  %38 = call i32 (i8*, ...) @printf(i8* getelementptr inbounds ([4 x i8], [4 x i8]* @.str.2, i64 0, i64 0), i32 %37)
  br label %39

39:                                               ; preds = %35
  %40 = load i32*, i32** %4, align 8
  %41 = getelementptr inbounds i32, i32* %40, i32 1
  store i32* %41, i32** %4, align 8
  br label %27

42:                                               ; preds = %27
  %43 = load i32*, i32** %4, align 8
  %44 = load i32, i32* %43, align 4
  %45 = call i32 (i8*, ...) @printf(i8* getelementptr inbounds ([3 x i8], [3 x i8]* @.str.1, i64 0, i64 0), i32 %44)
  %46 = load i32, i32* %1, align 4
  ret i32 %46
}

declare dso_local i32 @__isoc99_scanf(i8*, ...) #1

declare dso_local i32 @printf(i8*, ...) #1


!llvm.module.flags = !{!0}
!llvm.ident = !{!1}

!0 = !{i32 1, !"wchar_size", i32 4}
!1 = !{!"clang version 10.0.0-4ubuntu1 "}
